; Function Attrs: mustprogress nounwind uwtable
define internal fastcc void @_ZL12setGroupSizeN4llvm3MVTERNS_15SmallVectorImplIiEE(i16 %0, ptr noundef nonnull align 8 dereferenceable(16) %1) unnamed_addr #0 {
  %3 = alloca %"class.llvm::TypeSize", align 8
  %4 = zext i16 %0 to i64
  %5 = add nsw i64 %4, -1
  %6 = getelementptr inbounds [240 x %"class.llvm::TypeSize"], ptr @_ZZNK4llvm3MVT13getSizeInBitsEvE9SizeTable, i64 0, i64 %5
  %.sroa.0.0.copyload.i = load i64, ptr %6, align 16
  %.sroa.2.0..sroa_idx.i = getelementptr inbounds i8, ptr %6, i64 8
  %.sroa.2.0.copyload.i = load i8, ptr %.sroa.2.0..sroa_idx.i, align 8
  store i64 %.sroa.0.0.copyload.i, ptr %3, align 8
  %.sroa.2.0..sroa_idx = getelementptr inbounds i8, ptr %3, i64 8
  store i8 %.sroa.2.0.copyload.i, ptr %.sroa.2.0..sroa_idx, align 8
  %7 = call noundef i64 @_ZNK4llvm8TypeSizecvmEv(ptr noundef nonnull align 8 dereferenceable(9) %3) #10
  %8 = trunc i64 %7 to i32
  %9 = add i16 %0, -137
  %spec.select.i.i = icmp ult i16 %9, 53
  br i1 %spec.select.i.i, label %10, label %_ZNK4llvm3MVT20getVectorNumElementsEv.exit

10:                                               ; preds = %2
  call void @_ZN4llvm24reportInvalidSizeRequestEPKc(ptr noundef nonnull @.str.1) #10
  br label %_ZNK4llvm3MVT20getVectorNumElementsEv.exit

_ZNK4llvm3MVT20getVectorNumElementsEv.exit:       ; preds = %2, %10
  %11 = getelementptr inbounds [240 x i16], ptr @_ZZNK4llvm3MVT23getVectorMinNumElementsEvE10NElemTable, i64 0, i64 %5
  %12 = load i16, ptr %11, align 2
  %13 = zext i16 %12 to i32
  %14 = sdiv i32 %8, 128
  %.sroa.speculated = call i32 @llvm.smax.i32(i32 %14, i32 1)
  %15 = udiv i32 %13, %.sroa.speculated
  %16 = getelementptr inbounds i8, ptr %1, i64 16
  br label %17

17:                                               ; preds = %_ZNK4llvm3MVT20getVectorNumElementsEv.exit, %_ZN4llvm23SmallVectorTemplateBaseIiLb1EE9push_backEi.exit
  %.016 = phi i32 [ 0, %_ZNK4llvm3MVT20getVectorNumElementsEv.exit ], [ %35, %_ZN4llvm23SmallVectorTemplateBaseIiLb1EE9push_backEi.exit ]
  %.0915 = phi i32 [ 0, %_ZNK4llvm3MVT20getVectorNumElementsEv.exit ], [ %34, %_ZN4llvm23SmallVectorTemplateBaseIiLb1EE9push_backEi.exit ]
  %18 = sub nsw i32 %15, %.0915
  %19 = sitofp i32 %18 to double
  %20 = fdiv double %19, 3.000000e+00
  %21 = call double @llvm.ceil.f64(double %20)
  %22 = fptosi double %21 to i32
  %23 = call noundef i64 @_ZNK4llvm15SmallVectorBaseIjE4sizeEv(ptr noundef nonnull align 8 dereferenceable(16) %1) #10
  %24 = add i64 %23, 1
  %25 = call noundef i64 @_ZNK4llvm15SmallVectorBaseIjE8capacityEv(ptr noundef nonnull align 8 dereferenceable(16) %1) #10
  %.not.i.i.i = icmp ugt i64 %24, %25
  br i1 %.not.i.i.i, label %26, label %_ZN4llvm23SmallVectorTemplateBaseIiLb1EE9push_backEi.exit

26:                                               ; preds = %17
  call void @_ZN4llvm15SmallVectorBaseIjE8grow_podEPvmm(ptr noundef nonnull align 8 dereferenceable(16) %1, ptr noundef nonnull %16, i64 noundef %24, i64 noundef 4) #10
  br label %_ZN4llvm23SmallVectorTemplateBaseIiLb1EE9push_backEi.exit

_ZN4llvm23SmallVectorTemplateBaseIiLb1EE9push_backEi.exit: ; preds = %17, %26
  %27 = load ptr, ptr %1, align 8
  %28 = call noundef i64 @_ZNK4llvm15SmallVectorBaseIjE4sizeEv(ptr noundef nonnull align 8 dereferenceable(16) %1) #10
  %29 = getelementptr inbounds i32, ptr %27, i64 %28
  store i32 %22, ptr %29, align 1
  %30 = call noundef i64 @_ZNK4llvm15SmallVectorBaseIjE4sizeEv(ptr noundef nonnull align 8 dereferenceable(16) %1) #10
  %31 = add i64 %30, 1
  call void @_ZN4llvm15SmallVectorBaseIjE8set_sizeEm(ptr noundef nonnull align 8 dereferenceable(16) %1, i64 noundef %31) #10
  %32 = mul nsw i32 %22, 3
  %33 = add nsw i32 %32, %.0915
  %34 = srem i32 %33, %15
  %35 = add nuw nsw i32 %.016, 1
  %exitcond.not = icmp eq i32 %35, 3
  br i1 %exitcond.not, label %36, label %17, !llvm.loop !24

36:                                               ; preds = %_ZN4llvm23SmallVectorTemplateBaseIiLb1EE9push_backEi.exit
  ret void
}